; Function Attrs: mustprogress uwtable
define void @_ZN3zmq5own_t12launch_childEPS0_(ptr noundef nonnull align 8 dereferenceable(1444) %this, ptr noundef %object_) local_unnamed_addr #0 align 2 {
entry:
  %_owner.i = getelementptr inbounds i8, ptr %object_, i64 1384
  %0 = load ptr, ptr %_owner.i, align 8
  %tobool.not.i = icmp eq ptr %0, null
  br i1 %tobool.not.i, label %_ZN3zmq5own_t9set_ownerEPS0_.exit, label %if.then.i

if.then.i:                                        ; preds = %entry
  %1 = load ptr, ptr @stderr, align 8
  %call.i = tail call i32 (ptr, ptr, ...) @fprintf(ptr noundef %1, ptr noundef nonnull @.str, ptr noundef nonnull @.str.1, ptr noundef nonnull @.str.2, i32 noundef 35) #21
  %2 = load ptr, ptr @stderr, align 8
  %call3.i = tail call i32 @fflush(ptr noundef %2)
  tail call void @_ZN3zmq9zmq_abortEPKc(ptr noundef nonnull @.str.1)
  br label %_ZN3zmq5own_t9set_ownerEPS0_.exit

_ZN3zmq5own_t9set_ownerEPS0_.exit:                ; preds = %entry, %if.then.i
  store ptr %this, ptr %_owner.i, align 8
  tail call void @_ZN3zmq8object_t9send_plugEPNS_5own_tEb(ptr noundef nonnull align 8 dereferenceable(20) %this, ptr noundef nonnull %object_, i1 noundef zeroext true)
  tail call void @_ZN3zmq8object_t8send_ownEPNS_5own_tES2_(ptr noundef nonnull align 8 dereferenceable(20) %this, ptr noundef nonnull %this, ptr noundef nonnull %object_)
  ret void
}